target datalayout = "e-m:e-p270:32:32-p271:32:32-p272:64:64-i64:64-i128:128-f80:128-n8:16:32:64-S128"
target triple = "x86_64-pc-linux-gnu"

%"class.std::__shared_count" = type { ptr }
%"class.gmxapi::Status" = type { %"class.std::unique_ptr.49" }
%"class.std::unique_ptr.49" = type { %"struct.std::__uniq_ptr_data.50" }
%"struct.std::__uniq_ptr_data.50" = type { %"class.std::__uniq_ptr_impl.51" }
%"class.std::__uniq_ptr_impl.51" = type { %"class.std::tuple.52" }
%"class.std::tuple.52" = type { %"struct.std::_Tuple_impl.53" }
%"struct.std::_Tuple_impl.53" = type { %"struct.std::_Head_base.56" }
%"struct.std::_Head_base.56" = type { ptr }
%"class.std::unique_ptr.89" = type { %"struct.std::__uniq_ptr_data.90" }
%"struct.std::__uniq_ptr_data.90" = type { %"class.std::__uniq_ptr_impl.91" }
%"class.std::__uniq_ptr_impl.91" = type { %"class.std::tuple.92" }
%"class.std::tuple.92" = type { %"struct.std::_Tuple_impl.93" }
%"struct.std::_Tuple_impl.93" = type { %"struct.std::_Head_base.96" }
%"struct.std::_Head_base.96" = type { ptr }
%"class.std::shared_ptr.142" = type { %"class.std::__shared_ptr.143" }
%"class.std::__shared_ptr.143" = type { ptr, %"class.std::__shared_count" }
%"class.gmxapi::Session" = type { %"class.std::unique_ptr.89" }
%class.anon.163 = type { i8 }

@.str.2 = private unnamed_addr constant [12 x i8] c"sessionImpl\00", align 1
@.str.3 = private unnamed_addr constant [62 x i8] c"Session invariant implies valid implementation object handle.\00", align 1
@"__PRETTY_FUNCTION__._ZZN6gmxapi19addSessionRestraintEPNS_7SessionESt10shared_ptrINS_8MDModuleEEENK3$_0clEv" = private unnamed_addr constant [118 x i8] c"auto gmxapi::addSessionRestraint(Session *, std::shared_ptr<gmxapi::MDModule>)::(anonymous class)::operator()() const\00", align 1
@.str.4 = private unnamed_addr constant [120 x i8] c"generated/home/dtcxzyw/WorkSpace/Projects/compilers/llvm-opt-benchmark/bench/gromacs/gromacs/api/gmxapi/cpp/session.cpp\00", align 1

; Function Attrs: mustprogress nounwind uwtable
define linkonce_odr noundef nonnull align 8 dereferenceable(8) ptr @_ZNSt10_Head_baseILm0EPN6gmxapi11SessionImplELb0EE7_M_headERKS3_(ptr noundef nonnull align 8 dereferenceable(8) %0) #3 comdat align 2 {
  %2 = alloca ptr, align 8
  store ptr %0, ptr %2, align 8, !tbaa !200
  %3 = load ptr, ptr %2, align 8, !tbaa !200
  %4 = getelementptr inbounds nuw %"struct.std::_Head_base.96", ptr %3, i32 0, i32 0
  ret ptr %4
}

; Function Attrs: mustprogress nounwind uwtable
define linkonce_odr noundef nonnull align 8 dereferenceable(8) ptr @_ZNSt11_Tuple_implILm0EJPN6gmxapi11SessionImplESt14default_deleteIS1_EEE7_M_headERKS5_(ptr noundef nonnull align 8 dereferenceable(8) %0) #3 comdat align 2 {
  %2 = alloca ptr, align 8
  store ptr %0, ptr %2, align 8, !tbaa !196
  %3 = load ptr, ptr %2, align 8, !tbaa !196
  %4 = call noundef nonnull align 8 dereferenceable(8) ptr @_ZNSt10_Head_baseILm0EPN6gmxapi11SessionImplELb0EE7_M_headERKS3_(ptr noundef nonnull align 8 dereferenceable(8) %3) #20
  ret ptr %4
}

; Function Attrs: mustprogress nounwind uwtable
define linkonce_odr noundef nonnull align 8 dereferenceable(8) ptr @_ZSt12__get_helperILm0EPN6gmxapi11SessionImplEJSt14default_deleteIS1_EEERKT0_RKSt11_Tuple_implIXT_EJS5_DpT1_EE(ptr noundef nonnull align 8 dereferenceable(8) %0) #3 comdat {
  %2 = alloca ptr, align 8
  store ptr %0, ptr %2, align 8, !tbaa !196
  %3 = load ptr, ptr %2, align 8, !tbaa !196
  %4 = call noundef nonnull align 8 dereferenceable(8) ptr @_ZNSt11_Tuple_implILm0EJPN6gmxapi11SessionImplESt14default_deleteIS1_EEE7_M_headERKS5_(ptr noundef nonnull align 8 dereferenceable(8) %3) #20
  ret ptr %4
}

; Function Attrs: mustprogress nounwind uwtable
define linkonce_odr noundef nonnull align 8 dereferenceable(8) ptr @_ZSt3getILm0EJPN6gmxapi11SessionImplESt14default_deleteIS1_EEERKNSt13tuple_elementIXT_ESt5tupleIJDpT0_EEE4typeERKS9_(ptr noundef nonnull align 8 dereferenceable(8) %0) #3 comdat {
  %2 = alloca ptr, align 8
  store ptr %0, ptr %2, align 8, !tbaa !194
  %3 = load ptr, ptr %2, align 8, !tbaa !194
  %4 = call noundef nonnull align 8 dereferenceable(8) ptr @_ZSt12__get_helperILm0EPN6gmxapi11SessionImplEJSt14default_deleteIS1_EEERKT0_RKSt11_Tuple_implIXT_EJS5_DpT1_EE(ptr noundef nonnull align 8 dereferenceable(8) %3) #20
  ret ptr %4
}

; Function Attrs: mustprogress nounwind uwtable
define linkonce_odr void @_ZNSt14__shared_countILN9__gnu_cxx12_Lock_policyE2EE7_M_swapERS2_(ptr noundef nonnull align 8 dereferenceable(8) %0, ptr noundef nonnull align 8 dereferenceable(8) %1) #3 comdat align 2 {
  %3 = alloca ptr, align 8
  %4 = alloca ptr, align 8
  %5 = alloca ptr, align 8
  store ptr %0, ptr %3, align 8, !tbaa !35
  store ptr %1, ptr %4, align 8, !tbaa !35
  %6 = load ptr, ptr %3, align 8
  call void @llvm.lifetime.start.p0(i64 8, ptr %5) #20
  %7 = load ptr, ptr %4, align 8, !tbaa !35
  %8 = getelementptr inbounds nuw %"class.std::__shared_count", ptr %7, i32 0, i32 0
  %9 = load ptr, ptr %8, align 8, !tbaa !43
  store ptr %9, ptr %5, align 8, !tbaa !59
  %10 = getelementptr inbounds nuw %"class.std::__shared_count", ptr %6, i32 0, i32 0
  %11 = load ptr, ptr %10, align 8, !tbaa !43
  %12 = load ptr, ptr %4, align 8, !tbaa !35
  %13 = getelementptr inbounds nuw %"class.std::__shared_count", ptr %12, i32 0, i32 0
  store ptr %11, ptr %13, align 8, !tbaa !43
  %14 = load ptr, ptr %5, align 8, !tbaa !59
  %15 = getelementptr inbounds nuw %"class.std::__shared_count", ptr %6, i32 0, i32 0
  store ptr %14, ptr %15, align 8, !tbaa !43
  call void @llvm.lifetime.end.p0(i64 8, ptr %5) #20
  ret void
}

; Function Attrs: mustprogress nounwind uwtable
define linkonce_odr void @_ZNSt14__shared_countILN9__gnu_cxx12_Lock_policyE2EEC2Ev(ptr noundef nonnull align 8 dereferenceable(8) %0) unnamed_addr #3 comdat align 2 {
  %2 = alloca ptr, align 8
  store ptr %0, ptr %2, align 8, !tbaa !35
  %3 = load ptr, ptr %2, align 8
  %4 = getelementptr inbounds nuw %"class.std::__shared_count", ptr %3, i32 0, i32 0
  store ptr null, ptr %4, align 8, !tbaa !43
  ret void
}

; Function Attrs: mustprogress nounwind uwtable
define linkonce_odr noundef ptr @_ZNKSt15__uniq_ptr_implIN6gmxapi11SessionImplESt14default_deleteIS1_EE6_M_ptrEv(ptr noundef nonnull align 8 dereferenceable(8) %0) #3 comdat align 2 {
  %2 = alloca ptr, align 8
  store ptr %0, ptr %2, align 8, !tbaa !192
  %3 = load ptr, ptr %2, align 8
  %4 = getelementptr inbounds nuw %"class.std::__uniq_ptr_impl.91", ptr %3, i32 0, i32 0
  %5 = call noundef nonnull align 8 dereferenceable(8) ptr @_ZSt3getILm0EJPN6gmxapi11SessionImplESt14default_deleteIS1_EEERKNSt13tuple_elementIXT_ESt5tupleIJDpT0_EEE4typeERKS9_(ptr noundef nonnull align 8 dereferenceable(8) %4) #20
  %6 = load ptr, ptr %5, align 8, !tbaa !134
  ret ptr %6
}

; Function Attrs: mustprogress nounwind uwtable
define linkonce_odr void @_ZNSt12__shared_ptrIN6gmxapi8MDModuleELN9__gnu_cxx12_Lock_policyE2EEC2EOS4_(ptr noundef nonnull align 8 dereferenceable(16) %0, ptr noundef nonnull align 8 dereferenceable(16) %1) unnamed_addr #3 comdat align 2 {
  %3 = alloca ptr, align 8
  %4 = alloca ptr, align 8
  store ptr %0, ptr %3, align 8, !tbaa !401
  store ptr %1, ptr %4, align 8, !tbaa !401
  %5 = load ptr, ptr %3, align 8
  %6 = getelementptr inbounds nuw %"class.std::__shared_ptr.143", ptr %5, i32 0, i32 0
  %7 = load ptr, ptr %4, align 8, !tbaa !401
  %8 = getelementptr inbounds nuw %"class.std::__shared_ptr.143", ptr %7, i32 0, i32 0
  %9 = load ptr, ptr %8, align 8, !tbaa !405
  store ptr %9, ptr %6, align 8, !tbaa !405
  %10 = getelementptr inbounds nuw %"class.std::__shared_ptr.143", ptr %5, i32 0, i32 1
  call void @_ZNSt14__shared_countILN9__gnu_cxx12_Lock_policyE2EEC2Ev(ptr noundef nonnull align 8 dereferenceable(8) %10) #20
  %11 = getelementptr inbounds nuw %"class.std::__shared_ptr.143", ptr %5, i32 0, i32 1
  %12 = load ptr, ptr %4, align 8, !tbaa !401
  %13 = getelementptr inbounds nuw %"class.std::__shared_ptr.143", ptr %12, i32 0, i32 1
  call void @_ZNSt14__shared_countILN9__gnu_cxx12_Lock_policyE2EE7_M_swapERS2_(ptr noundef nonnull align 8 dereferenceable(8) %11, ptr noundef nonnull align 8 dereferenceable(8) %13) #20
  %14 = load ptr, ptr %4, align 8, !tbaa !401
  %15 = getelementptr inbounds nuw %"class.std::__shared_ptr.143", ptr %14, i32 0, i32 0
  store ptr null, ptr %15, align 8, !tbaa !405
  ret void
}

; Function Attrs: mustprogress nounwind uwtable
define linkonce_odr noundef ptr @_ZNKSt10unique_ptrIN6gmxapi11SessionImplESt14default_deleteIS1_EE3getEv(ptr noundef nonnull align 8 dereferenceable(8) %0) #3 comdat align 2 {
  %2 = alloca ptr, align 8
  store ptr %0, ptr %2, align 8, !tbaa !178
  %3 = load ptr, ptr %2, align 8
  %4 = getelementptr inbounds nuw %"class.std::unique_ptr.89", ptr %3, i32 0, i32 0
  %5 = call noundef ptr @_ZNKSt15__uniq_ptr_implIN6gmxapi11SessionImplESt14default_deleteIS1_EE6_M_ptrEv(ptr noundef nonnull align 8 dereferenceable(8) %4) #20
  ret ptr %5
}

; Function Attrs: mustprogress nounwind uwtable
define linkonce_odr noundef zeroext i1 @_ZNKSt12__shared_ptrIN6gmxapi8MDModuleELN9__gnu_cxx12_Lock_policyE2EEcvbEv(ptr noundef nonnull align 8 dereferenceable(16) %0) #3 comdat align 2 {
  %2 = alloca ptr, align 8
  store ptr %0, ptr %2, align 8, !tbaa !401
  %3 = load ptr, ptr %2, align 8
  %4 = getelementptr inbounds nuw %"class.std::__shared_ptr.143", ptr %3, i32 0, i32 0
  %5 = load ptr, ptr %4, align 8, !tbaa !405
  %6 = icmp ne ptr %5, null
  ret i1 %6
}

; Function Attrs: mustprogress nounwind uwtable
define linkonce_odr void @_ZNSt10shared_ptrIN6gmxapi8MDModuleEEC2EOS2_(ptr noundef nonnull align 8 dereferenceable(16) %0, ptr noundef nonnull align 8 dereferenceable(16) %1) unnamed_addr #3 comdat align 2 {
  %3 = alloca ptr, align 8
  %4 = alloca ptr, align 8
  store ptr %0, ptr %3, align 8, !tbaa !387
  store ptr %1, ptr %4, align 8, !tbaa !387
  %5 = load ptr, ptr %3, align 8
  %6 = load ptr, ptr %4, align 8, !tbaa !387
  call void @_ZNSt12__shared_ptrIN6gmxapi8MDModuleELN9__gnu_cxx12_Lock_policyE2EEC2EOS4_(ptr noundef nonnull align 8 dereferenceable(16) %5, ptr noundef nonnull align 8 dereferenceable(16) %6) #20
  ret void
}

; Function Attrs: inlinehint mustprogress uwtable
define internal void @"_ZZN6gmxapi19addSessionRestraintEPNS_7SessionESt10shared_ptrINS_8MDModuleEEENK3$_0clEv"(ptr noundef nonnull align 1 dereferenceable(1) %0) #1 align 2 {
  %2 = alloca ptr, align 8
  store ptr %0, ptr %2, align 8, !tbaa !13
  call void @_ZN3gmx8internal13assertHandlerEPKcS2_S2_S2_i(ptr noundef @.str.2, ptr noundef @.str.3, ptr noundef @"__PRETTY_FUNCTION__._ZZN6gmxapi19addSessionRestraintEPNS_7SessionESt10shared_ptrINS_8MDModuleEEENK3$_0clEv", ptr noundef @.str.4, i32 noundef 335) #22
  unreachable
}

; Function Attrs: mustprogress nounwind uwtable
define noundef ptr @_ZNK6gmxapi7Session6getRawEv(ptr noundef nonnull align 8 dereferenceable(8) %0) #3 align 2 {
  %2 = alloca ptr, align 8
  store ptr %0, ptr %2, align 8, !tbaa !370
  %3 = load ptr, ptr %2, align 8
  %4 = getelementptr inbounds nuw %"class.gmxapi::Session", ptr %3, i32 0, i32 0
  %5 = call noundef ptr @_ZNKSt10unique_ptrIN6gmxapi11SessionImplESt14default_deleteIS1_EE3getEv(ptr noundef nonnull align 8 dereferenceable(8) %4) #20
  ret ptr %5
}

; Function Attrs: inlinehint mustprogress nounwind uwtable
define linkonce_odr noundef zeroext i1 @_ZStneIN6gmxapi8MDModuleEEbRKSt10shared_ptrIT_EDn(ptr noundef nonnull align 8 dereferenceable(16) %0, ptr %1) #5 comdat {
  %3 = alloca ptr, align 8
  %4 = alloca ptr, align 8
  store ptr %0, ptr %3, align 8, !tbaa !387
  store ptr %1, ptr %4, align 8, !tbaa !52
  %5 = load ptr, ptr %3, align 8, !tbaa !387
  %6 = call noundef zeroext i1 @_ZNKSt12__shared_ptrIN6gmxapi8MDModuleELN9__gnu_cxx12_Lock_policyE2EEcvbEv(ptr noundef nonnull align 8 dereferenceable(16) %5) #20
  ret i1 %6
}

; Function Attrs: mustprogress uwtable
define void @_ZN6gmxapi19addSessionRestraintEPNS_7SessionESt10shared_ptrINS_8MDModuleEE(ptr dead_on_unwind noalias writable sret(%"class.gmxapi::Status") align 8 %0, ptr noundef %1, ptr noundef %2) #0 personality ptr @__gxx_personality_v0 {
  %4 = alloca ptr, align 8
  %5 = alloca ptr, align 8
  %6 = alloca ptr, align 8
  %7 = alloca i1, align 1
  %8 = alloca ptr, align 8
  %9 = alloca %class.anon.163, align 1
  %10 = alloca ptr, align 8
  %11 = alloca i32, align 4
  %12 = alloca %"class.gmxapi::Status", align 8
  %13 = alloca %"class.std::shared_ptr.142", align 8
  store ptr %0, ptr %4, align 8
  store ptr %1, ptr %5, align 8, !tbaa !370
  store ptr %2, ptr %6, align 8, !tbaa !387
  store i1 false, ptr %7, align 1
  call void @_ZN6gmxapi6StatusC1Eb(ptr noundef nonnull align 8 dereferenceable(8) %0, i1 noundef zeroext false)
  %14 = load ptr, ptr %5, align 8, !tbaa !370
  %15 = icmp ne ptr %14, null
  br i1 %15, label %16, label %43

16:                                               ; preds = %3
  %17 = call noundef zeroext i1 @_ZStneIN6gmxapi8MDModuleEEbRKSt10shared_ptrIT_EDn(ptr noundef nonnull align 8 dereferenceable(16) %2, ptr null) #20
  br i1 %17, label %18, label %43

18:                                               ; preds = %16
  call void @llvm.lifetime.start.p0(i64 8, ptr %8) #20
  %19 = load ptr, ptr %5, align 8, !tbaa !370
  %20 = call noundef ptr @_ZNK6gmxapi7Session6getRawEv(ptr noundef nonnull align 8 dereferenceable(8) %19) #20
  store ptr %20, ptr %8, align 8, !tbaa !134
  %21 = load ptr, ptr %8, align 8, !tbaa !134
  %22 = icmp ne ptr %21, null
  call void @llvm.lifetime.start.p0(i64 1, ptr %9) #20
  br i1 %22, label %23, label %24

23:                                               ; preds = %18
  br label %26

24:                                               ; preds = %18
  invoke void @"_ZZN6gmxapi19addSessionRestraintEPNS_7SessionESt10shared_ptrINS_8MDModuleEEENK3$_0clEv"(ptr noundef nonnull align 1 dereferenceable(1) %9)
          to label %25 unwind label %33

25:                                               ; preds = %24
  br label %26

26:                                               ; preds = %25, %23
  call void @llvm.lifetime.end.p0(i64 1, ptr %9) #20
  %27 = load ptr, ptr %8, align 8, !tbaa !134
  %28 = icmp ne ptr %27, null
  br i1 %28, label %29, label %41

29:                                               ; preds = %26
  call void @llvm.lifetime.start.p0(i64 8, ptr %12) #20
  %30 = load ptr, ptr %8, align 8, !tbaa !134
  call void @_ZNSt10shared_ptrIN6gmxapi8MDModuleEEC2EOS2_(ptr noundef nonnull align 8 dereferenceable(16) %13, ptr noundef nonnull align 8 dereferenceable(16) %2) #20
  invoke void @_ZN6gmxapi11SessionImpl12addRestraintESt10shared_ptrINS_8MDModuleEE(ptr dead_on_unwind writable sret(%"class.gmxapi::Status") align 8 %12, ptr noundef nonnull align 8 dereferenceable(160) %30, ptr noundef %13)
          to label %31 unwind label %37

31:                                               ; preds = %29
  %32 = call noundef nonnull align 8 dereferenceable(8) ptr @_ZN6gmxapi6StatusaSEOS0_(ptr noundef nonnull align 8 dereferenceable(8) %0, ptr noundef nonnull align 8 dereferenceable(8) %12) #20
  call void @_ZN6gmxapi6StatusD1Ev(ptr noundef nonnull align 8 dereferenceable(8) %12) #20
  call void @_ZNSt12__shared_ptrIN6gmxapi8MDModuleELN9__gnu_cxx12_Lock_policyE2EED2Ev(ptr noundef nonnull align 8 dereferenceable(16) %13) #20
  call void @llvm.lifetime.end.p0(i64 8, ptr %12) #20
  br label %41

33:                                               ; preds = %24
  %34 = landingpad { ptr, i32 }
          cleanup
  %35 = extractvalue { ptr, i32 } %34, 0
  store ptr %35, ptr %10, align 8
  %36 = extractvalue { ptr, i32 } %34, 1
  store i32 %36, ptr %11, align 4
  call void @llvm.lifetime.end.p0(i64 1, ptr %9) #20
  br label %42

37:                                               ; preds = %29
  %38 = landingpad { ptr, i32 }
          cleanup
  %39 = extractvalue { ptr, i32 } %38, 0
  store ptr %39, ptr %10, align 8
  %40 = extractvalue { ptr, i32 } %38, 1
  store i32 %40, ptr %11, align 4
  call void @_ZNSt12__shared_ptrIN6gmxapi8MDModuleELN9__gnu_cxx12_Lock_policyE2EED2Ev(ptr noundef nonnull align 8 dereferenceable(16) %13) #20
  call void @llvm.lifetime.end.p0(i64 8, ptr %12) #20
  br label %42

41:                                               ; preds = %31, %26
  call void @llvm.lifetime.end.p0(i64 8, ptr %8) #20
  br label %43

42:                                               ; preds = %37, %33
  call void @llvm.lifetime.end.p0(i64 8, ptr %8) #20
  call void @_ZN6gmxapi6StatusD1Ev(ptr noundef nonnull align 8 dereferenceable(8) %0) #20
  br label %47

43:                                               ; preds = %41, %16, %3
  store i1 true, ptr %7, align 1
  %44 = load i1, ptr %7, align 1
  br i1 %44, label %46, label %45

45:                                               ; preds = %43
  call void @_ZN6gmxapi6StatusD1Ev(ptr noundef nonnull align 8 dereferenceable(8) %0) #20
  br label %46

46:                                               ; preds = %45, %43
  ret void

47:                                               ; preds = %42
  %48 = load ptr, ptr %10, align 8
  %49 = load i32, ptr %11, align 4
  %50 = insertvalue { ptr, i32 } poison, ptr %48, 0
  %51 = insertvalue { ptr, i32 } %50, i32 %49, 1
  resume { ptr, i32 } %51
}