; Function Attrs: mustprogress uwtable
define void @_ZN6gmxapi19addSessionRestraintEPNS_7SessionESt10shared_ptrINS_8MDModuleEE(ptr dead_on_unwind noalias nonnull writable sret(%"class.gmxapi::Status") align 8 %0, ptr noundef readonly %1, ptr noundef captures(none) %2) local_unnamed_addr #0 personality ptr @__gxx_personality_v0 {
  %4 = alloca %"class.gmxapi::Status", align 8
  %5 = alloca %"class.std::shared_ptr.142", align 8
  tail call void @_ZN6gmxapi6StatusC1Eb(ptr noundef nonnull align 8 dereferenceable(8) %0, i1 noundef zeroext false)
  %.not = icmp eq ptr %1, null
  br i1 %.not, label %42, label %6

6:                                                ; preds = %3
  %7 = load ptr, ptr %2, align 8, !tbaa !99
  %.not12 = icmp eq ptr %7, null
  br i1 %.not12, label %42, label %8

8:                                                ; preds = %6
  %9 = load ptr, ptr %1, align 8, !tbaa !61
  %.not10 = icmp eq ptr %9, null
  br i1 %.not10, label %10, label %.critedge

10:                                               ; preds = %8
  invoke void @_ZN3gmx8internal13assertHandlerEPKcS2_S2_S2_i(ptr noundef nonnull @.str.2, ptr noundef nonnull @.str.3, ptr noundef nonnull @"__PRETTY_FUNCTION__._ZZN6gmxapi19addSessionRestraintEPNS_7SessionESt10shared_ptrINS_8MDModuleEEENK3$_0clEv", ptr noundef nonnull @.str.4, i32 noundef 335) #29
          to label %.noexc unwind label %37

.noexc:                                           ; preds = %10
  unreachable

.critedge:                                        ; preds = %8
  call void @llvm.lifetime.start.p0(i64 8, ptr nonnull %4) #26
  store ptr %7, ptr %5, align 8, !tbaa !99
  %11 = getelementptr inbounds nuw i8, ptr %5, i64 8
  %12 = getelementptr inbounds nuw i8, ptr %2, i64 8
  %13 = load ptr, ptr %12, align 8, !tbaa !17
  store ptr null, ptr %12, align 8, !tbaa !17
  store ptr %13, ptr %11, align 8, !tbaa !17
  store ptr null, ptr %2, align 8, !tbaa !99
  invoke void @_ZN6gmxapi11SessionImpl12addRestraintESt10shared_ptrINS_8MDModuleEE(ptr dead_on_unwind nonnull writable sret(%"class.gmxapi::Status") align 8 %4, ptr noundef nonnull align 8 dereferenceable(160) %9, ptr noundef nonnull %5)
          to label %14 unwind label %39

14:                                               ; preds = %.critedge
  %15 = call noundef nonnull align 8 dereferenceable(8) ptr @_ZN6gmxapi6StatusaSEOS0_(ptr noundef nonnull align 8 dereferenceable(8) %0, ptr noundef nonnull align 8 dereferenceable(8) %4) #26
  call void @_ZN6gmxapi6StatusD1Ev(ptr noundef nonnull align 8 dereferenceable(8) %4) #26
  %.not.i.i = icmp eq ptr %13, null
  br i1 %.not.i.i, label %_ZNSt12__shared_ptrIN6gmxapi8MDModuleELN9__gnu_cxx12_Lock_policyE2EED2Ev.exit, label %16

16:                                               ; preds = %14
  %17 = getelementptr inbounds nuw i8, ptr %13, i64 8
  %18 = load atomic i64, ptr %17 acquire, align 8
  %19 = icmp eq i64 %18, 4294967297
  %20 = trunc i64 %18 to i32
  br i1 %19, label %21, label %29

21:                                               ; preds = %16
  store i32 0, ptr %17, align 8, !tbaa !7
  %22 = getelementptr inbounds nuw i8, ptr %13, i64 12
  store i32 0, ptr %22, align 4, !tbaa !12
  %23 = load ptr, ptr %13, align 8, !tbaa !13
  %24 = getelementptr inbounds nuw i8, ptr %23, i64 16
  %25 = load ptr, ptr %24, align 8
  call void %25(ptr noundef nonnull align 8 dereferenceable(16) %13) #26
  %26 = load ptr, ptr %13, align 8, !tbaa !13
  %27 = getelementptr inbounds nuw i8, ptr %26, i64 24
  %28 = load ptr, ptr %27, align 8
  call void %28(ptr noundef nonnull align 8 dereferenceable(16) %13) #26
  br label %_ZNSt12__shared_ptrIN6gmxapi8MDModuleELN9__gnu_cxx12_Lock_policyE2EED2Ev.exit

29:                                               ; preds = %16
  %30 = load i8, ptr @__libc_single_threaded, align 1, !tbaa !34
  %.not.i.i.i = icmp eq i8 %30, 0
  br i1 %.not.i.i.i, label %33, label %31

31:                                               ; preds = %29
  %32 = add nsw i32 %20, -1
  store i32 %32, ptr %17, align 4, !tbaa !35
  br label %_ZN9__gnu_cxx27__exchange_and_add_dispatchEPii.exit.i.i.i

33:                                               ; preds = %29
  %34 = atomicrmw volatile add ptr %17, i32 -1 acq_rel, align 4
  br label %_ZN9__gnu_cxx27__exchange_and_add_dispatchEPii.exit.i.i.i

_ZN9__gnu_cxx27__exchange_and_add_dispatchEPii.exit.i.i.i: ; preds = %33, %31
  %.0.i.i.i.i = phi i32 [ %20, %31 ], [ %34, %33 ]
  %35 = icmp eq i32 %.0.i.i.i.i, 1
  br i1 %35, label %36, label %_ZNSt12__shared_ptrIN6gmxapi8MDModuleELN9__gnu_cxx12_Lock_policyE2EED2Ev.exit, !prof !40

36:                                               ; preds = %_ZN9__gnu_cxx27__exchange_and_add_dispatchEPii.exit.i.i.i
  call void @_ZNSt16_Sp_counted_baseILN9__gnu_cxx12_Lock_policyE2EE24_M_release_last_use_coldEv(ptr noundef nonnull align 8 dereferenceable(16) %13) #26
  br label %_ZNSt12__shared_ptrIN6gmxapi8MDModuleELN9__gnu_cxx12_Lock_policyE2EED2Ev.exit

_ZNSt12__shared_ptrIN6gmxapi8MDModuleELN9__gnu_cxx12_Lock_policyE2EED2Ev.exit: ; preds = %14, %21, %_ZN9__gnu_cxx27__exchange_and_add_dispatchEPii.exit.i.i.i, %36
  call void @llvm.lifetime.end.p0(i64 8, ptr nonnull %4) #26
  br label %42

37:                                               ; preds = %10
  %38 = landingpad { ptr, i32 }
          cleanup
  br label %41

39:                                               ; preds = %.critedge
  %40 = landingpad { ptr, i32 }
          cleanup
  call void @_ZNSt12__shared_ptrIN6gmxapi8MDModuleELN9__gnu_cxx12_Lock_policyE2EED2Ev(ptr noundef nonnull align 8 dereferenceable(16) %5) #26
  call void @llvm.lifetime.end.p0(i64 8, ptr nonnull %4) #26
  br label %41

41:                                               ; preds = %39, %37
  %.pn = phi { ptr, i32 } [ %40, %39 ], [ %38, %37 ]
  call void @_ZN6gmxapi6StatusD1Ev(ptr noundef nonnull align 8 dereferenceable(8) %0) #26
  resume { ptr, i32 } %.pn

42:                                               ; preds = %3, %6, %_ZNSt12__shared_ptrIN6gmxapi8MDModuleELN9__gnu_cxx12_Lock_policyE2EED2Ev.exit
  ret void
}